target datalayout = "e-m:e-p270:32:32-p271:32:32-p272:64:64-i64:64-i128:128-f80:128-n8:16:32:64-S128"
target triple = "x86_64-unknown-linux-gnu"

%"class.v8::IndirectHandleBase" = type { ptr }
%"class.node::MemoryRetainer" = type { ptr }
%"class.std::__shared_count" = type { ptr }
%"class.v8::Local.25" = type { %"class.v8::LocalBase.26" }
%"class.v8::LocalBase.26" = type { %"class.v8::IndirectHandleBase" }
%"class.std::shared_ptr.333" = type { %"class.std::__shared_ptr.334" }
%"class.std::__shared_ptr.334" = type { ptr, %"class.std::__shared_count" }
%"class.node::BaseObjectPtrImpl.331" = type { %union.anon.332 }
%union.anon.332 = type { ptr }
%"class.node::Blob" = type { %"class.node::BaseObject", %"class.std::shared_ptr.333" }
%"class.node::BaseObject" = type { %"class.node::MemoryRetainer", %"class.v8::Global.48", ptr, ptr }
%"class.v8::Global.48" = type { %"class.v8::PersistentBase.49" }
%"class.v8::PersistentBase.49" = type { %"class.v8::IndirectHandleBase" }
%"class.node::Blob::Reader" = type <{ %"class.node::AsyncWrap", %"class.std::shared_ptr.361", %"class.node::BaseObjectPtrImpl.331", i8, [7 x i8] }>
%"class.node::AsyncWrap" = type { %"class.node::BaseObject", i32, i8, double, double }
%"class.std::shared_ptr.361" = type { %"class.std::__shared_ptr.362" }
%"class.std::__shared_ptr.362" = type { ptr, %"class.std::__shared_count" }

; Function Attrs: mustprogress nounwind uwtable
define linkonce_odr dso_local noundef ptr @_ZNKSt12__shared_ptrIN4node9DataQueueELN9__gnu_cxx12_Lock_policyE2EE3getEv(ptr noundef nonnull align 8 dereferenceable(16) %this) #4 comdat align 2 {
entry:
  %this.addr = alloca ptr, align 8
  store ptr %this, ptr %this.addr, align 8
  %this1 = load ptr, ptr %this.addr, align 8
  %_M_ptr = getelementptr inbounds %"class.std::__shared_ptr.334", ptr %this1, i32 0, i32 0
  %0 = load ptr, ptr %_M_ptr, align 8
  ret ptr %0
}

; Function Attrs: mustprogress nounwind uwtable
define linkonce_odr dso_local noundef ptr @_ZNK4node17BaseObjectPtrImplINS_4BlobELb0EE15get_base_objectEv(ptr noundef nonnull align 8 dereferenceable(8) %this) #4 comdat align 2 {
entry:
  %this.addr = alloca ptr, align 8
  store ptr %this, ptr %this.addr, align 8
  %this1 = load ptr, ptr %this.addr, align 8
  %data_ = getelementptr inbounds %"class.node::BaseObjectPtrImpl.331", ptr %this1, i32 0, i32 0
  %0 = load ptr, ptr %data_, align 8
  ret ptr %0
}

; Function Attrs: mustprogress nounwind uwtable
define linkonce_odr dso_local noundef ptr @_ZNKSt19__shared_ptr_accessIN4node9DataQueueELN9__gnu_cxx12_Lock_policyE2ELb0ELb0EE6_M_getEv(ptr noundef nonnull align 1 dereferenceable(1) %this) #4 comdat align 2 {
entry:
  %this.addr = alloca ptr, align 8
  store ptr %this, ptr %this.addr, align 8
  %this1 = load ptr, ptr %this.addr, align 8
  %call = call noundef ptr @_ZNKSt12__shared_ptrIN4node9DataQueueELN9__gnu_cxx12_Lock_policyE2EE3getEv(ptr noundef nonnull align 8 dereferenceable(16) %this1) #3
  ret ptr %call
}

; Function Attrs: mustprogress nounwind uwtable
define linkonce_odr dso_local noundef ptr @_ZNK4node17BaseObjectPtrImplINS_4BlobELb0EE3getEv(ptr noundef nonnull align 8 dereferenceable(8) %this) #4 comdat align 2 {
entry:
  %this.addr = alloca ptr, align 8
  store ptr %this, ptr %this.addr, align 8
  %this1 = load ptr, ptr %this.addr, align 8
  %call = call noundef ptr @_ZNK4node17BaseObjectPtrImplINS_4BlobELb0EE15get_base_objectEv(ptr noundef nonnull align 8 dereferenceable(8) %this1)
  ret ptr %call
}

; Function Attrs: mustprogress nounwind uwtable
define linkonce_odr dso_local void @_ZN4node17BaseObjectPtrImplINS_4BlobELb0EEC2EOS2_(ptr noundef nonnull align 8 dereferenceable(8) %this, ptr noundef nonnull align 8 dereferenceable(8) %other) unnamed_addr #4 comdat align 2 {
entry:
  %this.addr = alloca ptr, align 8
  %other.addr = alloca ptr, align 8
  store ptr %this, ptr %this.addr, align 8
  store ptr %other, ptr %other.addr, align 8
  %this1 = load ptr, ptr %this.addr, align 8
  %data_ = getelementptr inbounds %"class.node::BaseObjectPtrImpl.331", ptr %this1, i32 0, i32 0
  %0 = load ptr, ptr %other.addr, align 8
  %data_2 = getelementptr inbounds %"class.node::BaseObjectPtrImpl.331", ptr %0, i32 0, i32 0
  call void @llvm.memcpy.p0.p0.i64(ptr align 8 %data_, ptr align 8 %data_2, i64 8, i1 false)
  %1 = load ptr, ptr %other.addr, align 8
  %data_3 = getelementptr inbounds %"class.node::BaseObjectPtrImpl.331", ptr %1, i32 0, i32 0
  store ptr null, ptr %data_3, align 8
  ret void
}

; Function Attrs: mustprogress nounwind uwtable
define linkonce_odr dso_local noundef ptr @_ZNKSt19__shared_ptr_accessIN4node9DataQueueELN9__gnu_cxx12_Lock_policyE2ELb0ELb0EEptEv(ptr noundef nonnull align 1 dereferenceable(1) %this) #4 comdat align 2 {
entry:
  %this.addr = alloca ptr, align 8
  store ptr %this, ptr %this.addr, align 8
  %this1 = load ptr, ptr %this.addr, align 8
  %call = call noundef ptr @_ZNKSt19__shared_ptr_accessIN4node9DataQueueELN9__gnu_cxx12_Lock_policyE2ELb0ELb0EE6_M_getEv(ptr noundef nonnull align 1 dereferenceable(1) %this1) #3
  ret ptr %call
}

; Function Attrs: mustprogress nounwind uwtable
define linkonce_odr dso_local noundef ptr @_ZNK4node17BaseObjectPtrImplINS_4BlobELb0EEptEv(ptr noundef nonnull align 8 dereferenceable(8) %this) #4 comdat align 2 {
entry:
  %this.addr = alloca ptr, align 8
  store ptr %this, ptr %this.addr, align 8
  %this1 = load ptr, ptr %this.addr, align 8
  %call = call noundef ptr @_ZNK4node17BaseObjectPtrImplINS_4BlobELb0EE3getEv(ptr noundef nonnull align 8 dereferenceable(8) %this1)
  ret ptr %call
}

; Function Attrs: mustprogress nounwind uwtable
define dso_local void @_ZN4node4Blob6ReaderC2EPNS_11EnvironmentEN2v85LocalINS4_6ObjectEEENS_17BaseObjectPtrImplIS0_Lb0EEE(ptr noundef nonnull align 8 dereferenceable(88) %this, ptr noundef %env, ptr %obj.coerce, ptr noundef %strong_ptr) unnamed_addr #4 align 2 {
entry:
  %obj = alloca %"class.v8::Local.25", align 8
  %this.addr = alloca ptr, align 8
  %env.addr = alloca ptr, align 8
  %strong_ptr.indirect_addr = alloca ptr, align 8
  %agg.tmp = alloca %"class.v8::Local.25", align 8
  %coerce.dive = getelementptr inbounds %"class.v8::Local.25", ptr %obj, i32 0, i32 0
  %coerce.dive1 = getelementptr inbounds %"class.v8::LocalBase.26", ptr %coerce.dive, i32 0, i32 0
  %coerce.dive2 = getelementptr inbounds %"class.v8::IndirectHandleBase", ptr %coerce.dive1, i32 0, i32 0
  store ptr %obj.coerce, ptr %coerce.dive2, align 8
  store ptr %this, ptr %this.addr, align 8
  store ptr %env, ptr %env.addr, align 8
  store ptr %strong_ptr, ptr %strong_ptr.indirect_addr, align 8
  %this3 = load ptr, ptr %this.addr, align 8
  %0 = load ptr, ptr %env.addr, align 8
  call void @llvm.memcpy.p0.p0.i64(ptr align 8 %agg.tmp, ptr align 8 %obj, i64 8, i1 false)
  %coerce.dive4 = getelementptr inbounds %"class.v8::Local.25", ptr %agg.tmp, i32 0, i32 0
  %coerce.dive5 = getelementptr inbounds %"class.v8::LocalBase.26", ptr %coerce.dive4, i32 0, i32 0
  %coerce.dive6 = getelementptr inbounds %"class.v8::IndirectHandleBase", ptr %coerce.dive5, i32 0, i32 0
  %1 = load ptr, ptr %coerce.dive6, align 8
  call void @_ZN4node9AsyncWrapC2EPNS_11EnvironmentEN2v85LocalINS3_6ObjectEEENS0_12ProviderTypeEd(ptr noundef nonnull align 8 dereferenceable(56) %this3, ptr noundef %0, ptr %1, i32 noundef 6, double noundef -1.000000e+00)
  store ptr getelementptr inbounds ({ [20 x ptr] }, ptr @_ZTVN4node4Blob6ReaderE, i32 0, i32 0, i32 2), ptr %this3, align 8
  %inner_ = getelementptr inbounds %"class.node::Blob::Reader", ptr %this3, i32 0, i32 1
  %call = call noundef ptr @_ZNK4node17BaseObjectPtrImplINS_4BlobELb0EEptEv(ptr noundef nonnull align 8 dereferenceable(8) %strong_ptr)
  %data_queue_ = getelementptr inbounds %"class.node::Blob", ptr %call, i32 0, i32 1
  %call7 = call noundef ptr @_ZNKSt19__shared_ptr_accessIN4node9DataQueueELN9__gnu_cxx12_Lock_policyE2ELb0ELb0EEptEv(ptr noundef nonnull align 1 dereferenceable(1) %data_queue_) #3
  %vtable = load ptr, ptr %call7, align 8
  %vfn = getelementptr inbounds ptr, ptr %vtable, i64 8
  %2 = load ptr, ptr %vfn, align 8
  call void %2(ptr sret(%"class.std::shared_ptr.361") align 8 %inner_, ptr noundef nonnull align 8 dereferenceable(8) %call7)
  %strong_ptr_ = getelementptr inbounds %"class.node::Blob::Reader", ptr %this3, i32 0, i32 2
  call void @_ZN4node17BaseObjectPtrImplINS_4BlobELb0EEC2EOS2_(ptr noundef nonnull align 8 dereferenceable(8) %strong_ptr_, ptr noundef nonnull align 8 dereferenceable(8) %strong_ptr)
  %eos_ = getelementptr inbounds %"class.node::Blob::Reader", ptr %this3, i32 0, i32 3
  store i8 0, ptr %eos_, align 8
  call void @_ZN4node10BaseObject8MakeWeakEv(ptr noundef nonnull align 8 dereferenceable(32) %this3)
  ret void
}