; Function Attrs: mustprogress nounwind uwtable
define dso_local void @_ZN4node4Blob6ReaderC2EPNS_11EnvironmentEN2v85LocalINS4_6ObjectEEENS_17BaseObjectPtrImplIS0_Lb0EEE(ptr noundef nonnull align 8 dereferenceable(88) %this, ptr noundef %env, ptr %obj.coerce, ptr nocapture noundef %strong_ptr) unnamed_addr #3 align 2 {
entry:
  tail call void @_ZN4node9AsyncWrapC2EPNS_11EnvironmentEN2v85LocalINS3_6ObjectEEENS0_12ProviderTypeEd(ptr noundef nonnull align 8 dereferenceable(56) %this, ptr noundef %env, ptr %obj.coerce, i32 noundef 6, double noundef -1.000000e+00) #22
  store ptr getelementptr inbounds ({ [20 x ptr] }, ptr @_ZTVN4node4Blob6ReaderE, i64 0, i32 0, i64 2), ptr %this, align 8
  %inner_ = getelementptr inbounds i8, ptr %this, i64 56
  %0 = load ptr, ptr %strong_ptr, align 8
  %data_queue_ = getelementptr inbounds i8, ptr %0, i64 32
  %1 = load ptr, ptr %data_queue_, align 8
  %vtable = load ptr, ptr %1, align 8
  %vfn = getelementptr inbounds i8, ptr %vtable, i64 64
  %2 = load ptr, ptr %vfn, align 8
  tail call void %2(ptr nonnull sret(%"class.std::shared_ptr.361") align 8 %inner_, ptr noundef nonnull align 8 dereferenceable(8) %1) #22
  %strong_ptr_ = getelementptr inbounds i8, ptr %this, i64 72
  %3 = load i64, ptr %strong_ptr, align 8
  store i64 %3, ptr %strong_ptr_, align 8
  store ptr null, ptr %strong_ptr, align 8
  %eos_ = getelementptr inbounds i8, ptr %this, i64 80
  store i8 0, ptr %eos_, align 8
  tail call void @_ZN4node10BaseObject8MakeWeakEv(ptr noundef nonnull align 8 dereferenceable(32) %this) #22
  ret void
}